target datalayout = "e-m:e-p270:32:32-p271:32:32-p272:64:64-i64:64-i128:128-f80:128-n8:16:32:64-S128"
target triple = "x86_64-pc-linux-gnu"

@kwsysBase64EncodeTable = internal constant [65 x i8] c"ABCDEFGHIJKLMNOPQRSTUVWXYZabcdefghijklmnopqrstuvwxyz0123456789+/\00", align 16

; Function Attrs: nounwind uwtable
define internal zeroext i8 @kwsysBase64EncodeChar(i32 noundef %0) #0 {
  %2 = alloca i32, align 4
  store i32 %0, ptr %2, align 4, !tbaa !10
  %3 = load i32, ptr %2, align 4, !tbaa !10
  %4 = trunc i32 %3 to i8
  %5 = zext i8 %4 to i64
  %6 = getelementptr inbounds nuw [65 x i8], ptr @kwsysBase64EncodeTable, i64 0, i64 %5
  %7 = load i8, ptr %6, align 1, !tbaa !9
  ret i8 %7
}

; Function Attrs: nounwind uwtable
define dso_local void @cmsysBase64_Encode1(ptr noundef %0, ptr noundef %1) #0 {
  %3 = alloca ptr, align 8
  %4 = alloca ptr, align 8
  store ptr %0, ptr %3, align 8, !tbaa !4
  store ptr %1, ptr %4, align 8, !tbaa !4
  %5 = load ptr, ptr %3, align 8, !tbaa !4
  %6 = getelementptr inbounds i8, ptr %5, i64 0
  %7 = load i8, ptr %6, align 1, !tbaa !9
  %8 = zext i8 %7 to i32
  %9 = ashr i32 %8, 2
  %10 = and i32 %9, 63
  %11 = call zeroext i8 @kwsysBase64EncodeChar(i32 noundef %10)
  %12 = load ptr, ptr %4, align 8, !tbaa !4
  %13 = getelementptr inbounds i8, ptr %12, i64 0
  store i8 %11, ptr %13, align 1, !tbaa !9
  %14 = load ptr, ptr %3, align 8, !tbaa !4
  %15 = getelementptr inbounds i8, ptr %14, i64 0
  %16 = load i8, ptr %15, align 1, !tbaa !9
  %17 = zext i8 %16 to i32
  %18 = shl i32 %17, 4
  %19 = and i32 %18, 48
  %20 = call zeroext i8 @kwsysBase64EncodeChar(i32 noundef %19)
  %21 = load ptr, ptr %4, align 8, !tbaa !4
  %22 = getelementptr inbounds i8, ptr %21, i64 1
  store i8 %20, ptr %22, align 1, !tbaa !9
  %23 = load ptr, ptr %4, align 8, !tbaa !4
  %24 = getelementptr inbounds i8, ptr %23, i64 2
  store i8 61, ptr %24, align 1, !tbaa !9
  %25 = load ptr, ptr %4, align 8, !tbaa !4
  %26 = getelementptr inbounds i8, ptr %25, i64 3
  store i8 61, ptr %26, align 1, !tbaa !9
  ret void
}

; Function Attrs: nounwind uwtable
define dso_local void @cmsysBase64_Encode2(ptr noundef %0, ptr noundef %1) #0 {
  %3 = alloca ptr, align 8
  %4 = alloca ptr, align 8
  store ptr %0, ptr %3, align 8, !tbaa !4
  store ptr %1, ptr %4, align 8, !tbaa !4
  %5 = load ptr, ptr %3, align 8, !tbaa !4
  %6 = getelementptr inbounds i8, ptr %5, i64 0
  %7 = load i8, ptr %6, align 1, !tbaa !9
  %8 = zext i8 %7 to i32
  %9 = ashr i32 %8, 2
  %10 = and i32 %9, 63
  %11 = call zeroext i8 @kwsysBase64EncodeChar(i32 noundef %10)
  %12 = load ptr, ptr %4, align 8, !tbaa !4
  %13 = getelementptr inbounds i8, ptr %12, i64 0
  store i8 %11, ptr %13, align 1, !tbaa !9
  %14 = load ptr, ptr %3, align 8, !tbaa !4
  %15 = getelementptr inbounds i8, ptr %14, i64 0
  %16 = load i8, ptr %15, align 1, !tbaa !9
  %17 = zext i8 %16 to i32
  %18 = shl i32 %17, 4
  %19 = and i32 %18, 48
  %20 = load ptr, ptr %3, align 8, !tbaa !4
  %21 = getelementptr inbounds i8, ptr %20, i64 1
  %22 = load i8, ptr %21, align 1, !tbaa !9
  %23 = zext i8 %22 to i32
  %24 = ashr i32 %23, 4
  %25 = and i32 %24, 15
  %26 = or i32 %19, %25
  %27 = call zeroext i8 @kwsysBase64EncodeChar(i32 noundef %26)
  %28 = load ptr, ptr %4, align 8, !tbaa !4
  %29 = getelementptr inbounds i8, ptr %28, i64 1
  store i8 %27, ptr %29, align 1, !tbaa !9
  %30 = load ptr, ptr %3, align 8, !tbaa !4
  %31 = getelementptr inbounds i8, ptr %30, i64 1
  %32 = load i8, ptr %31, align 1, !tbaa !9
  %33 = zext i8 %32 to i32
  %34 = shl i32 %33, 2
  %35 = and i32 %34, 60
  %36 = call zeroext i8 @kwsysBase64EncodeChar(i32 noundef %35)
  %37 = load ptr, ptr %4, align 8, !tbaa !4
  %38 = getelementptr inbounds i8, ptr %37, i64 2
  store i8 %36, ptr %38, align 1, !tbaa !9
  %39 = load ptr, ptr %4, align 8, !tbaa !4
  %40 = getelementptr inbounds i8, ptr %39, i64 3
  store i8 61, ptr %40, align 1, !tbaa !9
  ret void
}

; Function Attrs: nounwind uwtable
define dso_local void @cmsysBase64_Encode3(ptr noundef %0, ptr noundef %1) #0 {
  %3 = alloca ptr, align 8
  %4 = alloca ptr, align 8
  store ptr %0, ptr %3, align 8, !tbaa !4
  store ptr %1, ptr %4, align 8, !tbaa !4
  %5 = load ptr, ptr %3, align 8, !tbaa !4
  %6 = getelementptr inbounds i8, ptr %5, i64 0
  %7 = load i8, ptr %6, align 1, !tbaa !9
  %8 = zext i8 %7 to i32
  %9 = ashr i32 %8, 2
  %10 = and i32 %9, 63
  %11 = call zeroext i8 @kwsysBase64EncodeChar(i32 noundef %10)
  %12 = load ptr, ptr %4, align 8, !tbaa !4
  %13 = getelementptr inbounds i8, ptr %12, i64 0
  store i8 %11, ptr %13, align 1, !tbaa !9
  %14 = load ptr, ptr %3, align 8, !tbaa !4
  %15 = getelementptr inbounds i8, ptr %14, i64 0
  %16 = load i8, ptr %15, align 1, !tbaa !9
  %17 = zext i8 %16 to i32
  %18 = shl i32 %17, 4
  %19 = and i32 %18, 48
  %20 = load ptr, ptr %3, align 8, !tbaa !4
  %21 = getelementptr inbounds i8, ptr %20, i64 1
  %22 = load i8, ptr %21, align 1, !tbaa !9
  %23 = zext i8 %22 to i32
  %24 = ashr i32 %23, 4
  %25 = and i32 %24, 15
  %26 = or i32 %19, %25
  %27 = call zeroext i8 @kwsysBase64EncodeChar(i32 noundef %26)
  %28 = load ptr, ptr %4, align 8, !tbaa !4
  %29 = getelementptr inbounds i8, ptr %28, i64 1
  store i8 %27, ptr %29, align 1, !tbaa !9
  %30 = load ptr, ptr %3, align 8, !tbaa !4
  %31 = getelementptr inbounds i8, ptr %30, i64 1
  %32 = load i8, ptr %31, align 1, !tbaa !9
  %33 = zext i8 %32 to i32
  %34 = shl i32 %33, 2
  %35 = and i32 %34, 60
  %36 = load ptr, ptr %3, align 8, !tbaa !4
  %37 = getelementptr inbounds i8, ptr %36, i64 2
  %38 = load i8, ptr %37, align 1, !tbaa !9
  %39 = zext i8 %38 to i32
  %40 = ashr i32 %39, 6
  %41 = and i32 %40, 3
  %42 = or i32 %35, %41
  %43 = call zeroext i8 @kwsysBase64EncodeChar(i32 noundef %42)
  %44 = load ptr, ptr %4, align 8, !tbaa !4
  %45 = getelementptr inbounds i8, ptr %44, i64 2
  store i8 %43, ptr %45, align 1, !tbaa !9
  %46 = load ptr, ptr %3, align 8, !tbaa !4
  %47 = getelementptr inbounds i8, ptr %46, i64 2
  %48 = load i8, ptr %47, align 1, !tbaa !9
  %49 = zext i8 %48 to i32
  %50 = and i32 %49, 63
  %51 = call zeroext i8 @kwsysBase64EncodeChar(i32 noundef %50)
  %52 = load ptr, ptr %4, align 8, !tbaa !4
  %53 = getelementptr inbounds i8, ptr %52, i64 3
  store i8 %51, ptr %53, align 1, !tbaa !9
  ret void
}

; Function Attrs: nounwind uwtable
define dso_local i64 @cmsysBase64_Encode(ptr noundef %0, i64 noundef %1, ptr noundef %2, i32 noundef %3) #0 {
  %5 = alloca ptr, align 8
  %6 = alloca i64, align 8
  %7 = alloca ptr, align 8
  %8 = alloca i32, align 4
  %9 = alloca ptr, align 8
  %10 = alloca ptr, align 8
  %11 = alloca ptr, align 8
  store ptr %0, ptr %5, align 8, !tbaa !4
  store i64 %1, ptr %6, align 8, !tbaa !12
  store ptr %2, ptr %7, align 8, !tbaa !4
  store i32 %3, ptr %8, align 4, !tbaa !10
  call void @llvm.lifetime.start.p0(i64 8, ptr %9) #2
  %12 = load ptr, ptr %5, align 8, !tbaa !4
  store ptr %12, ptr %9, align 8, !tbaa !4
  call void @llvm.lifetime.start.p0(i64 8, ptr %10) #2
  %13 = load ptr, ptr %5, align 8, !tbaa !4
  %14 = load i64, ptr %6, align 8, !tbaa !12
  %15 = getelementptr inbounds nuw i8, ptr %13, i64 %14
  store ptr %15, ptr %10, align 8, !tbaa !4
  call void @llvm.lifetime.start.p0(i64 8, ptr %11) #2
  %16 = load ptr, ptr %7, align 8, !tbaa !4
  store ptr %16, ptr %11, align 8, !tbaa !4
  br label %17

17:                                               ; preds = %24, %4
  %18 = load ptr, ptr %10, align 8, !tbaa !4
  %19 = load ptr, ptr %9, align 8, !tbaa !4
  %20 = ptrtoint ptr %18 to i64
  %21 = ptrtoint ptr %19 to i64
  %22 = sub i64 %20, %21
  %23 = icmp sge i64 %22, 3
  br i1 %23, label %24, label %31

24:                                               ; preds = %17
  %25 = load ptr, ptr %9, align 8, !tbaa !4
  %26 = load ptr, ptr %11, align 8, !tbaa !4
  call void @cmsysBase64_Encode3(ptr noundef %25, ptr noundef %26)
  %27 = load ptr, ptr %9, align 8, !tbaa !4
  %28 = getelementptr inbounds i8, ptr %27, i64 3
  store ptr %28, ptr %9, align 8, !tbaa !4
  %29 = load ptr, ptr %11, align 8, !tbaa !4
  %30 = getelementptr inbounds i8, ptr %29, i64 4
  store ptr %30, ptr %11, align 8, !tbaa !4
  br label %17, !llvm.loop !14

31:                                               ; preds = %17
  %32 = load ptr, ptr %10, align 8, !tbaa !4
  %33 = load ptr, ptr %9, align 8, !tbaa !4
  %34 = ptrtoint ptr %32 to i64
  %35 = ptrtoint ptr %33 to i64
  %36 = sub i64 %34, %35
  %37 = icmp eq i64 %36, 2
  br i1 %37, label %38, label %43

38:                                               ; preds = %31
  %39 = load ptr, ptr %9, align 8, !tbaa !4
  %40 = load ptr, ptr %11, align 8, !tbaa !4
  call void @cmsysBase64_Encode2(ptr noundef %39, ptr noundef %40)
  %41 = load ptr, ptr %11, align 8, !tbaa !4
  %42 = getelementptr inbounds i8, ptr %41, i64 4
  store ptr %42, ptr %11, align 8, !tbaa !4
  br label %71

43:                                               ; preds = %31
  %44 = load ptr, ptr %10, align 8, !tbaa !4
  %45 = load ptr, ptr %9, align 8, !tbaa !4
  %46 = ptrtoint ptr %44 to i64
  %47 = ptrtoint ptr %45 to i64
  %48 = sub i64 %46, %47
  %49 = icmp eq i64 %48, 1
  br i1 %49, label %50, label %55

50:                                               ; preds = %43
  %51 = load ptr, ptr %9, align 8, !tbaa !4
  %52 = load ptr, ptr %11, align 8, !tbaa !4
  call void @cmsysBase64_Encode1(ptr noundef %51, ptr noundef %52)
  %53 = load ptr, ptr %11, align 8, !tbaa !4
  %54 = getelementptr inbounds i8, ptr %53, i64 4
  store ptr %54, ptr %11, align 8, !tbaa !4
  br label %70

55:                                               ; preds = %43
  %56 = load i32, ptr %8, align 4, !tbaa !10
  %57 = icmp ne i32 %56, 0
  br i1 %57, label %58, label %69

58:                                               ; preds = %55
  %59 = load ptr, ptr %11, align 8, !tbaa !4
  %60 = getelementptr inbounds i8, ptr %59, i64 3
  store i8 61, ptr %60, align 1, !tbaa !9
  %61 = load ptr, ptr %11, align 8, !tbaa !4
  %62 = getelementptr inbounds i8, ptr %61, i64 2
  store i8 61, ptr %62, align 1, !tbaa !9
  %63 = load ptr, ptr %11, align 8, !tbaa !4
  %64 = getelementptr inbounds i8, ptr %63, i64 1
  store i8 61, ptr %64, align 1, !tbaa !9
  %65 = load ptr, ptr %11, align 8, !tbaa !4
  %66 = getelementptr inbounds i8, ptr %65, i64 0
  store i8 61, ptr %66, align 1, !tbaa !9
  %67 = load ptr, ptr %11, align 8, !tbaa !4
  %68 = getelementptr inbounds i8, ptr %67, i64 4
  store ptr %68, ptr %11, align 8, !tbaa !4
  br label %69

69:                                               ; preds = %58, %55
  br label %70

70:                                               ; preds = %69, %50
  br label %71

71:                                               ; preds = %70, %38
  %72 = load ptr, ptr %11, align 8, !tbaa !4
  %73 = load ptr, ptr %7, align 8, !tbaa !4
  %74 = ptrtoint ptr %72 to i64
  %75 = ptrtoint ptr %73 to i64
  %76 = sub i64 %74, %75
  call void @llvm.lifetime.end.p0(i64 8, ptr %11) #2
  call void @llvm.lifetime.end.p0(i64 8, ptr %10) #2
  call void @llvm.lifetime.end.p0(i64 8, ptr %9) #2
  ret i64 %76
}