; Function Attrs: nofree norecurse nosync nounwind memory(argmem: readwrite) uwtable
define dso_local i64 @cmsysBase64_Encode(ptr noundef %0, i64 noundef %1, ptr noundef %2, i32 noundef %3) local_unnamed_addr #1 {
  %5 = getelementptr inbounds nuw i8, ptr %0, i64 %1
  %6 = ptrtoint ptr %5 to i64
  %7 = icmp sgt i64 %1, 2
  br i1 %7, label %.lr.ph, label %._crit_edge

.lr.ph:                                           ; preds = %4, %.lr.ph
  %.030 = phi ptr [ %44, %.lr.ph ], [ %2, %4 ]
  %.02729 = phi ptr [ %43, %.lr.ph ], [ %0, %4 ]
  %8 = load i8, ptr %.02729, align 1, !tbaa !4
  %9 = lshr i8 %8, 2
  %10 = zext nneg i8 %9 to i64
  %11 = getelementptr inbounds nuw [65 x i8], ptr @kwsysBase64EncodeTable, i64 0, i64 %10
  %12 = load i8, ptr %11, align 1, !tbaa !4
  store i8 %12, ptr %.030, align 1, !tbaa !4
  %13 = load i8, ptr %.02729, align 1, !tbaa !4
  %14 = zext i8 %13 to i64
  %15 = shl nuw nsw i64 %14, 4
  %16 = and i64 %15, 48
  %17 = getelementptr inbounds nuw i8, ptr %.02729, i64 1
  %18 = load i8, ptr %17, align 1, !tbaa !4
  %19 = lshr i8 %18, 4
  %20 = zext nneg i8 %19 to i64
  %21 = or disjoint i64 %16, %20
  %22 = getelementptr inbounds nuw [65 x i8], ptr @kwsysBase64EncodeTable, i64 0, i64 %21
  %23 = load i8, ptr %22, align 1, !tbaa !4
  %24 = getelementptr inbounds nuw i8, ptr %.030, i64 1
  store i8 %23, ptr %24, align 1, !tbaa !4
  %25 = load i8, ptr %17, align 1, !tbaa !4
  %26 = zext i8 %25 to i64
  %27 = shl nuw nsw i64 %26, 2
  %28 = and i64 %27, 60
  %29 = getelementptr inbounds nuw i8, ptr %.02729, i64 2
  %30 = load i8, ptr %29, align 1, !tbaa !4
  %31 = lshr i8 %30, 6
  %32 = zext nneg i8 %31 to i64
  %33 = or disjoint i64 %28, %32
  %34 = getelementptr inbounds nuw [65 x i8], ptr @kwsysBase64EncodeTable, i64 0, i64 %33
  %35 = load i8, ptr %34, align 1, !tbaa !4
  %36 = getelementptr inbounds nuw i8, ptr %.030, i64 2
  store i8 %35, ptr %36, align 1, !tbaa !4
  %37 = load i8, ptr %29, align 1, !tbaa !4
  %38 = and i8 %37, 63
  %39 = zext nneg i8 %38 to i64
  %40 = getelementptr inbounds nuw [65 x i8], ptr @kwsysBase64EncodeTable, i64 0, i64 %39
  %41 = load i8, ptr %40, align 1, !tbaa !4
  %42 = getelementptr inbounds nuw i8, ptr %.030, i64 3
  store i8 %41, ptr %42, align 1, !tbaa !4
  %43 = getelementptr inbounds nuw i8, ptr %.02729, i64 3
  %44 = getelementptr inbounds nuw i8, ptr %.030, i64 4
  %45 = ptrtoint ptr %43 to i64
  %46 = sub i64 %6, %45
  %47 = icmp sgt i64 %46, 2
  br i1 %47, label %.lr.ph, label %._crit_edge, !llvm.loop !7

._crit_edge:                                      ; preds = %.lr.ph, %4
  %.027.lcssa = phi ptr [ %0, %4 ], [ %43, %.lr.ph ]
  %.0.lcssa = phi ptr [ %2, %4 ], [ %44, %.lr.ph ]
  %.lcssa = phi i64 [ %1, %4 ], [ %46, %.lr.ph ]
  switch i64 %.lcssa, label %91 [
    i64 2, label %48
    i64 1, label %75
  ]

48:                                               ; preds = %._crit_edge
  %49 = load i8, ptr %.027.lcssa, align 1, !tbaa !4
  %50 = lshr i8 %49, 2
  %51 = zext nneg i8 %50 to i64
  %52 = getelementptr inbounds nuw [65 x i8], ptr @kwsysBase64EncodeTable, i64 0, i64 %51
  %53 = load i8, ptr %52, align 1, !tbaa !4
  store i8 %53, ptr %.0.lcssa, align 1, !tbaa !4
  %54 = load i8, ptr %.027.lcssa, align 1, !tbaa !4
  %55 = zext i8 %54 to i64
  %56 = shl nuw nsw i64 %55, 4
  %57 = and i64 %56, 48
  %58 = getelementptr inbounds nuw i8, ptr %.027.lcssa, i64 1
  %59 = load i8, ptr %58, align 1, !tbaa !4
  %60 = lshr i8 %59, 4
  %61 = zext nneg i8 %60 to i64
  %62 = or disjoint i64 %57, %61
  %63 = getelementptr inbounds nuw [65 x i8], ptr @kwsysBase64EncodeTable, i64 0, i64 %62
  %64 = load i8, ptr %63, align 1, !tbaa !4
  %65 = getelementptr inbounds nuw i8, ptr %.0.lcssa, i64 1
  store i8 %64, ptr %65, align 1, !tbaa !4
  %66 = load i8, ptr %58, align 1, !tbaa !4
  %67 = zext i8 %66 to i64
  %68 = shl nuw nsw i64 %67, 2
  %69 = and i64 %68, 60
  %70 = getelementptr inbounds nuw [65 x i8], ptr @kwsysBase64EncodeTable, i64 0, i64 %69
  %71 = load i8, ptr %70, align 4, !tbaa !4
  %72 = getelementptr inbounds nuw i8, ptr %.0.lcssa, i64 2
  store i8 %71, ptr %72, align 1, !tbaa !4
  %73 = getelementptr inbounds nuw i8, ptr %.0.lcssa, i64 3
  store i8 61, ptr %73, align 1, !tbaa !4
  %74 = getelementptr inbounds nuw i8, ptr %.0.lcssa, i64 4
  br label %94

75:                                               ; preds = %._crit_edge
  %76 = load i8, ptr %.027.lcssa, align 1, !tbaa !4
  %77 = lshr i8 %76, 2
  %78 = zext nneg i8 %77 to i64
  %79 = getelementptr inbounds nuw [65 x i8], ptr @kwsysBase64EncodeTable, i64 0, i64 %78
  %80 = load i8, ptr %79, align 1, !tbaa !4
  store i8 %80, ptr %.0.lcssa, align 1, !tbaa !4
  %81 = load i8, ptr %.027.lcssa, align 1, !tbaa !4
  %82 = zext i8 %81 to i64
  %83 = shl nuw nsw i64 %82, 4
  %84 = and i64 %83, 48
  %85 = getelementptr inbounds nuw [65 x i8], ptr @kwsysBase64EncodeTable, i64 0, i64 %84
  %86 = load i8, ptr %85, align 16, !tbaa !4
  %87 = getelementptr inbounds nuw i8, ptr %.0.lcssa, i64 1
  store i8 %86, ptr %87, align 1, !tbaa !4
  %88 = getelementptr inbounds nuw i8, ptr %.0.lcssa, i64 2
  store i8 61, ptr %88, align 1, !tbaa !4
  %89 = getelementptr inbounds nuw i8, ptr %.0.lcssa, i64 3
  store i8 61, ptr %89, align 1, !tbaa !4
  %90 = getelementptr inbounds nuw i8, ptr %.0.lcssa, i64 4
  br label %94

91:                                               ; preds = %._crit_edge
  %.not = icmp eq i32 %3, 0
  br i1 %.not, label %94, label %92

92:                                               ; preds = %91
  %93 = getelementptr inbounds nuw i8, ptr %.0.lcssa, i64 4
  store i32 1027423549, ptr %.0.lcssa, align 1
  br label %94

94:                                               ; preds = %75, %92, %91, %48
  %.1 = phi ptr [ %74, %48 ], [ %90, %75 ], [ %93, %92 ], [ %.0.lcssa, %91 ]
  %95 = ptrtoint ptr %.1 to i64
  %96 = ptrtoint ptr %2 to i64
  %97 = sub i64 %95, %96
  ret i64 %97
}